	.section	__TEXT,__text,regular,pure_instructions
	.build_version macos, 13, 0	sdk_version 13, 0
	.globl	_main                           ; -- Begin function main
	.p2align	2
_main:                                  ; @main
	.cfi_startproc
; %bb.0:
	sub	sp, sp, #32
	stp	x29, x30, [sp, #16]             ; 16-byte Folded Spill
	add	x29, sp, #16
	.cfi_def_cfa w29, 16
	.cfi_offset w30, -8
	.cfi_offset w29, -16
	sub	x0, x29, #2
	bl	__ZN1AptEv
	mov	x9, sp
	mov	x8, #1
	str	x8, [x9]
	adrp	x0, l_.str@PAGE
	add	x0, x0, l_.str@PAGEOFF
	bl	_printf
	mov	w0, #0
	ldp	x29, x30, [sp, #16]             ; 16-byte Folded Reload
	add	sp, sp, #32
	ret
	.cfi_endproc
                                        ; -- End function
	.globl	__ZN1AptEv                      ; -- Begin function _ZN1AptEv
	.weak_definition	__ZN1AptEv
	.p2align	2
__ZN1AptEv:                             ; @_ZN1AptEv
	.cfi_startproc
; %bb.0:
	sub	sp, sp, #32
	stp	x29, x30, [sp, #16]             ; 16-byte Folded Spill
	add	x29, sp, #16
	.cfi_def_cfa w29, 16
	.cfi_offset w30, -8
	.cfi_offset w29, -16
	str	x0, [sp, #8]
	adrp	x0, l_.str.1@PAGE
	add	x0, x0, l_.str.1@PAGEOFF
	bl	_printf
	ldp	x29, x30, [sp, #16]             ; 16-byte Folded Reload
	add	sp, sp, #32
	ret
	.cfi_endproc
                                        ; -- End function
	.section	__TEXT,__cstring,cstring_literals
l_.str:                                 ; @.str
	.asciz	"%d\n"

l_.str.1:                               ; @.str.1
	.asciz	"A operator->\n"

.subsections_via_symbols
